target datalayout = "e-m:e-p270:32:32-p271:32:32-p272:64:64-i64:64-i128:128-f80:128-n8:16:32:64-S128"
target triple = "x86_64-pc-linux-gnu"

%struct.darktable_t = type { %struct.dt_codepath_t, i32, i32, ptr, ptr, ptr, ptr, ptr, ptr, ptr, ptr, ptr, ptr, ptr, ptr, ptr, ptr, ptr, ptr, ptr, ptr, ptr, ptr, ptr, ptr, ptr, ptr, ptr, ptr, ptr, [64 x %struct.dt_pthread_mutex_t], %struct.dt_pthread_mutex_t, %struct.dt_pthread_mutex_t, %struct.dt_pthread_mutex_t, %struct.dt_pthread_mutex_t, %struct.dt_pthread_mutex_t, ptr, ptr, ptr, ptr, ptr, ptr, ptr, ptr, ptr, ptr, ptr, ptr, ptr, %struct.dt_lua_state_t, ptr, double, ptr, i32, [47 x i32], i32, i32, ptr, ptr, %struct.dt_sys_resources_t, %struct.dt_backthumb_t, %struct.dt_gimp_t }
%struct.dt_codepath_t = type { i8, [3 x i8] }
%struct.dt_pthread_mutex_t = type { %union.pthread_mutex_t }
%union.pthread_mutex_t = type { %struct.__pthread_mutex_s }
%struct.__pthread_mutex_s = type { i32, i32, i32, i32, i32, i16, i16, %struct.__pthread_internal_list }
%struct.__pthread_internal_list = type { ptr, ptr }
%struct.dt_lua_state_t = type { i32 }
%struct.dt_sys_resources_t = type { i64, i64, ptr, ptr, i32 }
%struct.dt_backthumb_t = type { double, double, i32, i32, i32, i32 }
%struct.dt_gimp_t = type { i32, ptr, ptr, i32, i32 }
%struct.dt_pwstorage_t = type { i32, ptr }

@darktable = external global %struct.darktable_t, align 8
@.str.25 = private unnamed_addr constant [38 x i8] c"[pwstorage_new] Destroying context %p\00", align 1

; Function Attrs: nounwind uwtable
define void @dt_pwstorage_destroy(ptr noundef %0) #0 {
  %2 = alloca ptr, align 8
  store ptr %0, ptr %2, align 8, !tbaa !6
  br label %3

3:                                                ; preds = %1
  %4 = load i32, ptr getelementptr inbounds nuw (%struct.darktable_t, ptr @darktable, i32 0, i32 2), align 8, !tbaa !11
  %5 = and i32 64, %4
  %6 = icmp ne i32 %5, 0
  br i1 %6, label %7, label %14

7:                                                ; preds = %3
  %8 = load i32, ptr getelementptr inbounds nuw (%struct.darktable_t, ptr @darktable, i32 0, i32 2), align 8, !tbaa !11
  %9 = xor i32 %8, -1
  %10 = and i32 0, %9
  %11 = icmp ne i32 %10, 0
  br i1 %11, label %14, label %12

12:                                               ; preds = %7
  %13 = load ptr, ptr %2, align 8, !tbaa !6
  call void (ptr, ...) @dt_print_ext(ptr noundef @.str.25, ptr noundef %13)
  br label %14

14:                                               ; preds = %12, %7, %3
  br label %15

15:                                               ; preds = %14
  %16 = load ptr, ptr getelementptr inbounds nuw (%struct.darktable_t, ptr @darktable, i32 0, i32 19), align 8, !tbaa !54
  %17 = getelementptr inbounds nuw %struct.dt_pwstorage_t, ptr %16, i32 0, i32 0
  %18 = load i32, ptr %17, align 8, !tbaa !51
  switch i32 %18, label %23 [
    i32 0, label %23
    i32 2, label %23
    i32 1, label %19
    i32 3, label %23
    i32 4, label %23
  ]

19:                                               ; preds = %15
  %20 = load ptr, ptr %2, align 8, !tbaa !6
  %21 = getelementptr inbounds nuw %struct.dt_pwstorage_t, ptr %20, i32 0, i32 1
  %22 = load ptr, ptr %21, align 8, !tbaa !53
  call void @dt_pwstorage_kwallet_destroy(ptr noundef %22)
  br label %23

23:                                               ; preds = %15, %15, %15, %19, %15, %15
  ret void
}