; Function Attrs: nounwind uwtable
define void @dt_pwstorage_destroy(ptr noundef %0) local_unnamed_addr #0 {
  %2 = load i32, ptr getelementptr inbounds nuw (i8, ptr @darktable, i64 8), align 8, !tbaa !6
  %3 = and i32 %2, 64
  %.not = icmp eq i32 %3, 0
  br i1 %.not, label %5, label %4

4:                                                ; preds = %1
  tail call void (ptr, ...) @dt_print_ext(ptr noundef nonnull @.str.25, ptr noundef %0) #6
  br label %5

5:                                                ; preds = %1, %4
  %6 = load ptr, ptr getelementptr inbounds nuw (i8, ptr @darktable, i64 144), align 8, !tbaa !51
  %7 = load i32, ptr %6, align 8, !tbaa !48
  %cond = icmp eq i32 %7, 1
  br i1 %cond, label %8, label %11

8:                                                ; preds = %5
  %9 = getelementptr inbounds nuw i8, ptr %0, i64 8
  %10 = load ptr, ptr %9, align 8, !tbaa !50
  tail call void @dt_pwstorage_kwallet_destroy(ptr noundef %10) #6
  br label %11

11:                                               ; preds = %5, %8
  ret void
}